target datalayout = "e-m:e-p270:32:32-p271:32:32-p272:64:64-i64:64-i128:128-f80:128-n8:16:32:64-S128"
target triple = "x86_64-pc-linux-gnu"

; Function Attrs: nounwind uwtable
define hidden void @KeccakP1600_ExtractLanes(ptr noundef %0, ptr noundef %1, i32 noundef %2) #0 {
  %4 = alloca ptr, align 8
  %5 = alloca ptr, align 8
  %6 = alloca i32, align 4
  store ptr %0, ptr %4, align 8, !tbaa !4
  store ptr %1, ptr %5, align 8, !tbaa !12
  store i32 %2, ptr %6, align 4, !tbaa !10
  %7 = load ptr, ptr %5, align 8, !tbaa !12
  %8 = load ptr, ptr %4, align 8, !tbaa !4
  %9 = load i32, ptr %6, align 4, !tbaa !10
  %10 = mul i32 %9, 8
  %11 = zext i32 %10 to i64
  call void @llvm.memcpy.p0.p0.i64(ptr align 1 %7, ptr align 1 %8, i64 %11, i1 false)
  %12 = load i32, ptr %6, align 4, !tbaa !10
  %13 = icmp ugt i32 %12, 1
  br i1 %13, label %14, label %71

14:                                               ; preds = %3
  %15 = load ptr, ptr %5, align 8, !tbaa !12
  %16 = getelementptr inbounds i64, ptr %15, i64 1
  %17 = load i64, ptr %16, align 8, !tbaa !8
  %18 = xor i64 %17, -1
  %19 = load ptr, ptr %5, align 8, !tbaa !12
  %20 = getelementptr inbounds i64, ptr %19, i64 1
  store i64 %18, ptr %20, align 8, !tbaa !8
  %21 = load i32, ptr %6, align 4, !tbaa !10
  %22 = icmp ugt i32 %21, 2
  br i1 %22, label %23, label %70

23:                                               ; preds = %14
  %24 = load ptr, ptr %5, align 8, !tbaa !12
  %25 = getelementptr inbounds i64, ptr %24, i64 2
  %26 = load i64, ptr %25, align 8, !tbaa !8
  %27 = xor i64 %26, -1
  %28 = load ptr, ptr %5, align 8, !tbaa !12
  %29 = getelementptr inbounds i64, ptr %28, i64 2
  store i64 %27, ptr %29, align 8, !tbaa !8
  %30 = load i32, ptr %6, align 4, !tbaa !10
  %31 = icmp ugt i32 %30, 8
  br i1 %31, label %32, label %69

32:                                               ; preds = %23
  %33 = load ptr, ptr %5, align 8, !tbaa !12
  %34 = getelementptr inbounds i64, ptr %33, i64 8
  %35 = load i64, ptr %34, align 8, !tbaa !8
  %36 = xor i64 %35, -1
  %37 = load ptr, ptr %5, align 8, !tbaa !12
  %38 = getelementptr inbounds i64, ptr %37, i64 8
  store i64 %36, ptr %38, align 8, !tbaa !8
  %39 = load i32, ptr %6, align 4, !tbaa !10
  %40 = icmp ugt i32 %39, 12
  br i1 %40, label %41, label %68

41:                                               ; preds = %32
  %42 = load ptr, ptr %5, align 8, !tbaa !12
  %43 = getelementptr inbounds i64, ptr %42, i64 12
  %44 = load i64, ptr %43, align 8, !tbaa !8
  %45 = xor i64 %44, -1
  %46 = load ptr, ptr %5, align 8, !tbaa !12
  %47 = getelementptr inbounds i64, ptr %46, i64 12
  store i64 %45, ptr %47, align 8, !tbaa !8
  %48 = load i32, ptr %6, align 4, !tbaa !10
  %49 = icmp ugt i32 %48, 17
  br i1 %49, label %50, label %67

50:                                               ; preds = %41
  %51 = load ptr, ptr %5, align 8, !tbaa !12
  %52 = getelementptr inbounds i64, ptr %51, i64 17
  %53 = load i64, ptr %52, align 8, !tbaa !8
  %54 = xor i64 %53, -1
  %55 = load ptr, ptr %5, align 8, !tbaa !12
  %56 = getelementptr inbounds i64, ptr %55, i64 17
  store i64 %54, ptr %56, align 8, !tbaa !8
  %57 = load i32, ptr %6, align 4, !tbaa !10
  %58 = icmp ugt i32 %57, 20
  br i1 %58, label %59, label %66

59:                                               ; preds = %50
  %60 = load ptr, ptr %5, align 8, !tbaa !12
  %61 = getelementptr inbounds i64, ptr %60, i64 20
  %62 = load i64, ptr %61, align 8, !tbaa !8
  %63 = xor i64 %62, -1
  %64 = load ptr, ptr %5, align 8, !tbaa !12
  %65 = getelementptr inbounds i64, ptr %64, i64 20
  store i64 %63, ptr %65, align 8, !tbaa !8
  br label %66

66:                                               ; preds = %59, %50
  br label %67

67:                                               ; preds = %66, %41
  br label %68

68:                                               ; preds = %67, %32
  br label %69

69:                                               ; preds = %68, %23
  br label %70

70:                                               ; preds = %69, %14
  br label %71

71:                                               ; preds = %70, %3
  ret void
}