; Function Attrs: mustprogress nofree norecurse nosync nounwind willreturn memory(argmem: readwrite) uwtable
define hidden void @KeccakP1600_ExtractLanes(ptr noundef readonly captures(none) %0, ptr noundef captures(none) %1, i32 noundef %2) local_unnamed_addr #2 {
  %4 = shl i32 %2, 3
  %5 = zext i32 %4 to i64
  tail call void @llvm.memcpy.p0.p0.i64(ptr align 1 %1, ptr align 1 %0, i64 %5, i1 false)
  %6 = icmp ugt i32 %2, 1
  br i1 %6, label %7, label %35

7:                                                ; preds = %3
  %8 = getelementptr inbounds nuw i8, ptr %1, i64 8
  %9 = load i64, ptr %8, align 8, !tbaa !4
  %10 = xor i64 %9, -1
  store i64 %10, ptr %8, align 8, !tbaa !4
  %.not = icmp eq i32 %2, 2
  br i1 %.not, label %35, label %11

11:                                               ; preds = %7
  %12 = getelementptr inbounds nuw i8, ptr %1, i64 16
  %13 = load i64, ptr %12, align 8, !tbaa !4
  %14 = xor i64 %13, -1
  store i64 %14, ptr %12, align 8, !tbaa !4
  %15 = icmp ugt i32 %2, 8
  br i1 %15, label %16, label %35

16:                                               ; preds = %11
  %17 = getelementptr inbounds nuw i8, ptr %1, i64 64
  %18 = load i64, ptr %17, align 8, !tbaa !4
  %19 = xor i64 %18, -1
  store i64 %19, ptr %17, align 8, !tbaa !4
  %20 = icmp ugt i32 %2, 12
  br i1 %20, label %21, label %35

21:                                               ; preds = %16
  %22 = getelementptr inbounds nuw i8, ptr %1, i64 96
  %23 = load i64, ptr %22, align 8, !tbaa !4
  %24 = xor i64 %23, -1
  store i64 %24, ptr %22, align 8, !tbaa !4
  %25 = icmp ugt i32 %2, 17
  br i1 %25, label %26, label %35

26:                                               ; preds = %21
  %27 = getelementptr inbounds nuw i8, ptr %1, i64 136
  %28 = load i64, ptr %27, align 8, !tbaa !4
  %29 = xor i64 %28, -1
  store i64 %29, ptr %27, align 8, !tbaa !4
  %30 = icmp ugt i32 %2, 20
  br i1 %30, label %31, label %35

31:                                               ; preds = %26
  %32 = getelementptr inbounds nuw i8, ptr %1, i64 160
  %33 = load i64, ptr %32, align 8, !tbaa !4
  %34 = xor i64 %33, -1
  store i64 %34, ptr %32, align 8, !tbaa !4
  br label %35

35:                                               ; preds = %7, %16, %26, %31, %21, %11, %3
  ret void
}